target datalayout = "e-m:e-p270:32:32-p271:32:32-p272:64:64-i64:64-i128:128-f80:128-n8:16:32:64-S128"
target triple = "x86_64-pc-linux-gnu"

%struct.ec_key_st = type { ptr, ptr, i32, ptr, ptr, ptr, i32, i32, %struct.CRYPTO_REF_COUNT, i32, %struct.crypto_ex_data_st, ptr, ptr, i64 }
%struct.CRYPTO_REF_COUNT = type { i32 }
%struct.crypto_ex_data_st = type { ptr, ptr }
%struct.ec_key_method_st = type { ptr, i32, ptr, ptr, ptr, ptr, ptr, ptr, ptr, ptr, ptr, ptr, ptr, ptr, ptr }

@.str = private unnamed_addr constant [32 x i8] c"../openssl/crypto/ec/ec_kmeth.c\00", align 1
@__func__.ECDH_compute_key = private unnamed_addr constant [17 x i8] c"ECDH_compute_key\00", align 1

; Function Attrs: nounwind uwtable
define i32 @ECDH_compute_key(ptr noundef %0, i64 noundef %1, ptr noundef %2, ptr noundef %3, ptr noundef %4) #0 {
  %6 = alloca i32, align 4
  %7 = alloca ptr, align 8
  %8 = alloca i64, align 8
  %9 = alloca ptr, align 8
  %10 = alloca ptr, align 8
  %11 = alloca ptr, align 8
  %12 = alloca ptr, align 8
  %13 = alloca i64, align 8
  %14 = alloca i32, align 4
  store ptr %0, ptr %7, align 8, !tbaa !25
  store i64 %1, ptr %8, align 8, !tbaa !37
  store ptr %2, ptr %9, align 8, !tbaa !38
  store ptr %3, ptr %10, align 8, !tbaa !8
  store ptr %4, ptr %11, align 8, !tbaa !25
  call void @llvm.lifetime.start.p0(i64 8, ptr %12) #5
  store ptr null, ptr %12, align 8, !tbaa !29
  call void @llvm.lifetime.start.p0(i64 8, ptr %13) #5
  %15 = load ptr, ptr %10, align 8, !tbaa !8
  %16 = getelementptr inbounds nuw %struct.ec_key_st, ptr %15, i32 0, i32 0
  %17 = load ptr, ptr %16, align 8, !tbaa !10
  %18 = getelementptr inbounds nuw %struct.ec_key_method_st, ptr %17, i32 0, i32 9
  %19 = load ptr, ptr %18, align 8, !tbaa !39
  %20 = icmp eq ptr %19, null
  br i1 %20, label %21, label %22

21:                                               ; preds = %5
  call void @ERR_new()
  call void @ERR_set_debug(ptr noundef @.str, i32 noundef 157, ptr noundef @__func__.ECDH_compute_key)
  call void (i32, i32, ptr, ...) @ERR_set_error(i32 noundef 16, i32 noundef 152, ptr noundef null)
  store i32 0, ptr %6, align 4
  store i32 1, ptr %14, align 4
  br label %61

22:                                               ; preds = %5
  %23 = load i64, ptr %8, align 8, !tbaa !37
  %24 = icmp ugt i64 %23, 2147483647
  br i1 %24, label %25, label %26

25:                                               ; preds = %22
  call void @ERR_new()
  call void @ERR_set_debug(ptr noundef @.str, i32 noundef 161, ptr noundef @__func__.ECDH_compute_key)
  call void (i32, i32, ptr, ...) @ERR_set_error(i32 noundef 16, i32 noundef 161, ptr noundef null)
  store i32 0, ptr %6, align 4
  store i32 1, ptr %14, align 4
  br label %61

26:                                               ; preds = %22
  %27 = load ptr, ptr %10, align 8, !tbaa !8
  %28 = getelementptr inbounds nuw %struct.ec_key_st, ptr %27, i32 0, i32 0
  %29 = load ptr, ptr %28, align 8, !tbaa !10
  %30 = getelementptr inbounds nuw %struct.ec_key_method_st, ptr %29, i32 0, i32 9
  %31 = load ptr, ptr %30, align 8, !tbaa !39
  %32 = load ptr, ptr %9, align 8, !tbaa !38
  %33 = load ptr, ptr %10, align 8, !tbaa !8
  %34 = call i32 %31(ptr noundef %12, ptr noundef %13, ptr noundef %32, ptr noundef %33)
  %35 = icmp ne i32 %34, 0
  br i1 %35, label %37, label %36

36:                                               ; preds = %26
  store i32 0, ptr %6, align 4
  store i32 1, ptr %14, align 4
  br label %61

37:                                               ; preds = %26
  %38 = load ptr, ptr %11, align 8, !tbaa !25
  %39 = icmp ne ptr %38, null
  br i1 %39, label %40, label %46

40:                                               ; preds = %37
  %41 = load ptr, ptr %11, align 8, !tbaa !25
  %42 = load ptr, ptr %12, align 8, !tbaa !29
  %43 = load i64, ptr %13, align 8, !tbaa !37
  %44 = load ptr, ptr %7, align 8, !tbaa !25
  %45 = call ptr %41(ptr noundef %42, i64 noundef %43, ptr noundef %44, ptr noundef %8)
  br label %56

46:                                               ; preds = %37
  %47 = load i64, ptr %8, align 8, !tbaa !37
  %48 = load i64, ptr %13, align 8, !tbaa !37
  %49 = icmp ugt i64 %47, %48
  br i1 %49, label %50, label %52

50:                                               ; preds = %46
  %51 = load i64, ptr %13, align 8, !tbaa !37
  store i64 %51, ptr %8, align 8, !tbaa !37
  br label %52

52:                                               ; preds = %50, %46
  %53 = load ptr, ptr %7, align 8, !tbaa !25
  %54 = load ptr, ptr %12, align 8, !tbaa !29
  %55 = load i64, ptr %8, align 8, !tbaa !37
  call void @llvm.memcpy.p0.p0.i64(ptr align 1 %53, ptr align 1 %54, i64 %55, i1 false)
  br label %56

56:                                               ; preds = %52, %40
  %57 = load ptr, ptr %12, align 8, !tbaa !29
  %58 = load i64, ptr %13, align 8, !tbaa !37
  call void @CRYPTO_clear_free(ptr noundef %57, i64 noundef %58, ptr noundef @.str, i32 noundef 173)
  %59 = load i64, ptr %8, align 8, !tbaa !37
  %60 = trunc i64 %59 to i32
  store i32 %60, ptr %6, align 4
  store i32 1, ptr %14, align 4
  br label %61

61:                                               ; preds = %56, %36, %25, %21
  call void @llvm.lifetime.end.p0(i64 8, ptr %13) #5
  call void @llvm.lifetime.end.p0(i64 8, ptr %12) #5
  %62 = load i32, ptr %6, align 4
  ret i32 %62
}