; Function Attrs: nounwind uwtable
define i32 @ECDH_compute_key(ptr noundef %0, i64 noundef %1, ptr noundef %2, ptr noundef %3, ptr noundef readonly captures(address_is_null) %4) local_unnamed_addr #4 {
  %6 = alloca i64, align 8
  %7 = alloca ptr, align 8
  %8 = alloca i64, align 8
  store i64 %1, ptr %6, align 8, !tbaa !30
  call void @llvm.lifetime.start.p0(i64 8, ptr nonnull %7) #10
  store ptr null, ptr %7, align 8, !tbaa !31
  call void @llvm.lifetime.start.p0(i64 8, ptr nonnull %8) #10
  %9 = load ptr, ptr %3, align 8, !tbaa !8
  %10 = getelementptr inbounds nuw i8, ptr %9, i64 72
  %11 = load ptr, ptr %10, align 8, !tbaa !32
  %12 = icmp eq ptr %11, null
  br i1 %12, label %13, label %14

13:                                               ; preds = %5
  tail call void @ERR_new() #10
  tail call void @ERR_set_debug(ptr noundef nonnull @.str, i32 noundef 157, ptr noundef nonnull @__func__.ECDH_compute_key) #10
  tail call void (i32, i32, ptr, ...) @ERR_set_error(i32 noundef 16, i32 noundef 152, ptr noundef null) #10
  br label %36

14:                                               ; preds = %5
  %15 = icmp ugt i64 %1, 2147483647
  br i1 %15, label %16, label %17

16:                                               ; preds = %14
  tail call void @ERR_new() #10
  tail call void @ERR_set_debug(ptr noundef nonnull @.str, i32 noundef 161, ptr noundef nonnull @__func__.ECDH_compute_key) #10
  tail call void (i32, i32, ptr, ...) @ERR_set_error(i32 noundef 16, i32 noundef 161, ptr noundef null) #10
  br label %36

17:                                               ; preds = %14
  %18 = call i32 %11(ptr noundef nonnull %7, ptr noundef nonnull %8, ptr noundef %2, ptr noundef nonnull %3) #10
  %.not = icmp eq i32 %18, 0
  br i1 %.not, label %36, label %19

19:                                               ; preds = %17
  %.not11 = icmp eq ptr %4, null
  br i1 %.not11, label %24, label %20

20:                                               ; preds = %19
  %21 = load ptr, ptr %7, align 8, !tbaa !31
  %22 = load i64, ptr %8, align 8, !tbaa !30
  %23 = call ptr %4(ptr noundef %21, i64 noundef %22, ptr noundef %0, ptr noundef nonnull %6) #10
  %.pre = load ptr, ptr %7, align 8, !tbaa !31
  %.pre12 = load i64, ptr %8, align 8, !tbaa !30
  br label %31

24:                                               ; preds = %19
  %25 = load i64, ptr %8, align 8, !tbaa !30
  %26 = icmp ugt i64 %1, %25
  br i1 %26, label %27, label %28

27:                                               ; preds = %24
  store i64 %25, ptr %6, align 8, !tbaa !30
  br label %28

28:                                               ; preds = %27, %24
  %29 = phi i64 [ %25, %27 ], [ %1, %24 ]
  %30 = load ptr, ptr %7, align 8, !tbaa !31
  call void @llvm.memcpy.p0.p0.i64(ptr align 1 %0, ptr align 1 %30, i64 %29, i1 false)
  br label %31

31:                                               ; preds = %28, %20
  %32 = phi i64 [ %25, %28 ], [ %.pre12, %20 ]
  %33 = phi ptr [ %30, %28 ], [ %.pre, %20 ]
  call void @CRYPTO_clear_free(ptr noundef %33, i64 noundef %32, ptr noundef nonnull @.str, i32 noundef 173) #10
  %34 = load i64, ptr %6, align 8, !tbaa !30
  %35 = trunc i64 %34 to i32
  br label %36

36:                                               ; preds = %17, %31, %16, %13
  %.0 = phi i32 [ 0, %13 ], [ 0, %16 ], [ %35, %31 ], [ 0, %17 ]
  call void @llvm.lifetime.end.p0(i64 8, ptr nonnull %8) #10
  call void @llvm.lifetime.end.p0(i64 8, ptr nonnull %7) #10
  ret i32 %.0
}